target datalayout = "e-m:e-p270:32:32-p271:32:32-p272:64:64-i64:64-i128:128-f80:128-n8:16:32:64-S128"
target triple = "x86_64-pc-linux-gnu"

%struct.Qureg = type { i32, i32, i32, i64, i64, i32, i32, %struct.ComplexArray, %struct.ComplexArray, %struct.ComplexArray, ptr, ptr, ptr, ptr, ptr, ptr }
%struct.ComplexArray = type { ptr, ptr }
%struct.ComplexMatrixN = type { i32, ptr, ptr }

@__func__.applyGateMatrixN = private unnamed_addr constant [17 x i8] c"applyGateMatrixN\00", align 1
@.str.26 = private unnamed_addr constant [102 x i8] c"Here, an undisclosed %d-by-%d gate matrix (possibly non-unitary) was applied to %d undisclosed qubits\00", align 1

; Function Attrs: nounwind uwtable
define void @applyGateMatrixN(ptr noundef byval(%struct.Qureg) align 8 %0, ptr noundef %1, i32 noundef %2, ptr noundef byval(%struct.ComplexMatrixN) align 8 %3) #0 {
  %5 = alloca ptr, align 8
  %6 = alloca i32, align 4
  %7 = alloca i32, align 4
  %8 = alloca i32, align 4
  store ptr %1, ptr %5, align 8, !tbaa !27
  store i32 %2, ptr %6, align 4, !tbaa !4
  %9 = load ptr, ptr %5, align 8, !tbaa !27
  %10 = load i32, ptr %6, align 4, !tbaa !4
  call void @validateMultiTargets(ptr noundef byval(%struct.Qureg) align 8 %0, ptr noundef %9, i32 noundef %10, ptr noundef @__func__.applyGateMatrixN)
  %11 = load i32, ptr %6, align 4, !tbaa !4
  call void @validateMultiQubitMatrix(ptr noundef byval(%struct.Qureg) align 8 %0, ptr noundef byval(%struct.ComplexMatrixN) align 8 %3, i32 noundef %11, ptr noundef @__func__.applyGateMatrixN)
  %12 = load ptr, ptr %5, align 8, !tbaa !27
  %13 = load i32, ptr %6, align 4, !tbaa !4
  call void @statevec_multiQubitUnitary(ptr noundef byval(%struct.Qureg) align 8 %0, ptr noundef %12, i32 noundef %13, ptr noundef byval(%struct.ComplexMatrixN) align 8 %3)
  %14 = getelementptr inbounds nuw %struct.Qureg, ptr %0, i32 0, i32 0
  %15 = load i32, ptr %14, align 8, !tbaa !13
  %16 = icmp ne i32 %15, 0
  br i1 %16, label %17, label %29

17:                                               ; preds = %4
  call void @llvm.lifetime.start.p0(i64 4, ptr %7) #7
  %18 = getelementptr inbounds nuw %struct.Qureg, ptr %0, i32 0, i32 1
  %19 = load i32, ptr %18, align 4, !tbaa !18
  store i32 %19, ptr %7, align 4, !tbaa !4
  %20 = load ptr, ptr %5, align 8, !tbaa !27
  %21 = load i32, ptr %6, align 4, !tbaa !4
  %22 = load i32, ptr %7, align 4, !tbaa !4
  call void @shiftIndices(ptr noundef %20, i32 noundef %21, i32 noundef %22)
  call void @setConjugateMatrixN(ptr noundef byval(%struct.ComplexMatrixN) align 8 %3)
  %23 = load ptr, ptr %5, align 8, !tbaa !27
  %24 = load i32, ptr %6, align 4, !tbaa !4
  call void @statevec_multiQubitUnitary(ptr noundef byval(%struct.Qureg) align 8 %0, ptr noundef %23, i32 noundef %24, ptr noundef byval(%struct.ComplexMatrixN) align 8 %3)
  %25 = load ptr, ptr %5, align 8, !tbaa !27
  %26 = load i32, ptr %6, align 4, !tbaa !4
  %27 = load i32, ptr %7, align 4, !tbaa !4
  %28 = sub nsw i32 0, %27
  call void @shiftIndices(ptr noundef %25, i32 noundef %26, i32 noundef %28)
  call void @setConjugateMatrixN(ptr noundef byval(%struct.ComplexMatrixN) align 8 %3)
  call void @llvm.lifetime.end.p0(i64 4, ptr %7) #7
  br label %29

29:                                               ; preds = %17, %4
  call void @llvm.lifetime.start.p0(i64 4, ptr %8) #7
  %30 = load i32, ptr %6, align 4, !tbaa !4
  %31 = shl i32 1, %30
  store i32 %31, ptr %8, align 4, !tbaa !4
  %32 = load i32, ptr %8, align 4, !tbaa !4
  %33 = load i32, ptr %8, align 4, !tbaa !4
  %34 = load i32, ptr %6, align 4, !tbaa !4
  call void (ptr, ptr, ...) @qasm_recordComment(ptr noundef byval(%struct.Qureg) align 8 %0, ptr noundef @.str.26, i32 noundef %32, i32 noundef %33, i32 noundef %34)
  call void @llvm.lifetime.end.p0(i64 4, ptr %8) #7
  ret void
}